; ModuleID = '11/647.c'
source_filename = "11/647.c"
target datalayout = "e-m:e-p270:32:32-p271:32:32-p272:64:64-i64:64-f80:128-n8:16:32:64-S128"
target triple = "x86_64-pc-linux-gnu"

@__const.main.a = private unnamed_addr constant [2 x [13 x i32]] [[13 x i32] [i32 0, i32 31, i32 28, i32 31, i32 30, i32 31, i32 30, i32 31, i32 31, i32 30, i32 31, i32 30, i32 31], [13 x i32] [i32 0, i32 31, i32 29, i32 31, i32 30, i32 31, i32 30, i32 31, i32 31, i32 30, i32 31, i32 30, i32 31]], align 16
@.str = private unnamed_addr constant [9 x i8] c"%d %d %d\00", align 1
@.str.1 = private unnamed_addr constant [3 x i8] c"%d\00", align 1

; Function Attrs: noinline nounwind uwtable
define dso_local i32 @main() #0 {
  %1 = alloca i32, align 4
  %2 = alloca [2 x [13 x i32]], align 16
  %3 = alloca i32, align 4
  %4 = alloca i32, align 4
  %5 = alloca i32, align 4
  %6 = alloca i32, align 4
  %7 = alloca i32, align 4
  store i32 0, i32* %1, align 4
  %8 = bitcast [2 x [13 x i32]]* %2 to i8*
  call void @llvm.memcpy.p0i8.p0i8.i64(i8* align 16 %8, i8* align 16 bitcast ([2 x [13 x i32]]* @__const.main.a to i8*), i64 104, i1 false)
  store i32 0, i32* %7, align 4
  %9 = call i32 (i8*, ...) @__isoc99_scanf(i8* getelementptr inbounds ([9 x i8], [9 x i8]* @.str, i64 0, i64 0), i32* %3, i32* %4, i32* %6)
  %10 = load i32, i32* %3, align 4
  %11 = srem i32 %10, 400
  %12 = icmp eq i32 %11, 0
  br i1 %12, label %21, label %13

13:                                               ; preds = %0
  %14 = load i32, i32* %3, align 4
  %15 = srem i32 %14, 100
  %16 = icmp ne i32 %15, 0
  br i1 %16, label %17, label %41

17:                                               ; preds = %13
  %18 = load i32, i32* %3, align 4
  %19 = srem i32 %18, 4
  %20 = icmp eq i32 %19, 0
  br i1 %20, label %21, label %41

21:                                               ; preds = %17, %0
  store i32 0, i32* %5, align 4
  br label %22

22:                                               ; preds = %34, %21
  %23 = load i32, i32* %5, align 4
  %24 = load i32, i32* %4, align 4
  %25 = icmp slt i32 %23, %24
  br i1 %25, label %26, label %37

26:                                               ; preds = %22
  %27 = getelementptr inbounds [2 x [13 x i32]], [2 x [13 x i32]]* %2, i64 0, i64 1
  %28 = load i32, i32* %5, align 4
  %29 = sext i32 %28 to i64
  %30 = getelementptr inbounds [13 x i32], [13 x i32]* %27, i64 0, i64 %29
  %31 = load i32, i32* %30, align 4
  %32 = load i32, i32* %7, align 4
  %33 = add nsw i32 %32, %31
  store i32 %33, i32* %7, align 4
  br label %34

34:                                               ; preds = %26
  %35 = load i32, i32* %5, align 4
  %36 = add nsw i32 %35, 1
  store i32 %36, i32* %5, align 4
  br label %22

37:                                               ; preds = %22
  %38 = load i32, i32* %6, align 4
  %39 = load i32, i32* %7, align 4
  %40 = add nsw i32 %39, %38
  store i32 %40, i32* %7, align 4
  br label %61

41:                                               ; preds = %17, %13
  store i32 0, i32* %5, align 4
  br label %42

42:                                               ; preds = %54, %41
  %43 = load i32, i32* %5, align 4
  %44 = load i32, i32* %4, align 4
  %45 = icmp slt i32 %43, %44
  br i1 %45, label %46, label %57

46:                                               ; preds = %42
  %47 = getelementptr inbounds [2 x [13 x i32]], [2 x [13 x i32]]* %2, i64 0, i64 0
  %48 = load i32, i32* %5, align 4
  %49 = sext i32 %48 to i64
  %50 = getelementptr inbounds [13 x i32], [13 x i32]* %47, i64 0, i64 %49
  %51 = load i32, i32* %50, align 4
  %52 = load i32, i32* %7, align 4
  %53 = add nsw i32 %52, %51
  store i32 %53, i32* %7, align 4
  br label %54

54:                                               ; preds = %46
  %55 = load i32, i32* %5, align 4
  %56 = add nsw i32 %55, 1
  store i32 %56, i32* %5, align 4
  br label %42

57:                                               ; preds = %42
  %58 = load i32, i32* %6, align 4
  %59 = load i32, i32* %7, align 4
  %60 = add nsw i32 %59, %58
  store i32 %60, i32* %7, align 4
  br label %61

61:                                               ; preds = %57, %37
  %62 = load i32, i32* %7, align 4
  %63 = call i32 (i8*, ...) @printf(i8* getelementptr inbounds ([3 x i8], [3 x i8]* @.str.1, i64 0, i64 0), i32 %62)
  ret i32 0
}

; Function Attrs: argmemonly nounwind willreturn
declare void @llvm.memcpy.p0i8.p0i8.i64(i8* noalias nocapture writeonly, i8* noalias nocapture readonly, i64, i1 immarg) #1

declare dso_local i32 @__isoc99_scanf(i8*, ...) #2

declare dso_local i32 @printf(i8*, ...) #2


!llvm.module.flags = !{!0}
!llvm.ident = !{!1}

!0 = !{i32 1, !"wchar_size", i32 4}
!1 = !{!"clang version 10.0.0-4ubuntu1 "}
